target datalayout = "e-m:e-p270:32:32-p271:32:32-p272:64:64-i64:64-i128:128-f80:128-n8:16:32:64-S128"
target triple = "x86_64-pc-linux-gnu"

%"struct.cv::utils::trace::details::RegionStatisticsStatus" = type { i32 }

; Function Attrs: mustprogress nounwind uwtable
define hidden void @_ZN2cv5utils5trace7details22RegionStatisticsStatus18checkResetSkipModeEi(ptr noundef nonnull align 4 dereferenceable(4) %0, i32 noundef %1) #8 align 2 {
  %3 = alloca ptr, align 8
  %4 = alloca i32, align 4
  store ptr %0, ptr %3, align 8, !tbaa !111
  store i32 %1, ptr %4, align 4, !tbaa !3
  %5 = load ptr, ptr %3, align 8
  %6 = load i32, ptr %4, align 4, !tbaa !3
  %7 = getelementptr inbounds nuw %"struct.cv::utils::trace::details::RegionStatisticsStatus", ptr %5, i32 0, i32 0
  %8 = load i32, ptr %7, align 4, !tbaa !113
  %9 = icmp sle i32 %6, %8
  br i1 %9, label %10, label %12

10:                                               ; preds = %2
  %11 = getelementptr inbounds nuw %"struct.cv::utils::trace::details::RegionStatisticsStatus", ptr %5, i32 0, i32 0
  store i32 -1, ptr %11, align 4, !tbaa !113
  br label %12

12:                                               ; preds = %10, %2
  ret void
}