; Function Attrs: mustprogress nofree norecurse nosync nounwind willreturn memory(argmem: readwrite) uwtable
define hidden void @_ZN2cv5utils5trace7details22RegionStatisticsStatus18checkResetSkipModeEi(ptr noundef nonnull align 4 captures(none) dereferenceable(4) %0, i32 noundef %1) local_unnamed_addr #13 align 2 {
  %3 = load i32, ptr %0, align 4, !tbaa !95
  %.not = icmp sgt i32 %1, %3
  br i1 %.not, label %5, label %4

4:                                                ; preds = %2
  store i32 -1, ptr %0, align 4, !tbaa !95
  br label %5

5:                                                ; preds = %4, %2
  ret void
}